target datalayout = "e-m:e-p270:32:32-p271:32:32-p272:64:64-i64:64-i128:128-f80:128-n8:16:32:64-S128"
target triple = "x86_64-pc-linux-gnu"

%struct.H5P_libclass_t = type { ptr, i32, ptr, ptr, ptr, ptr, ptr, ptr, ptr, ptr, ptr, ptr, ptr }

@H5_libinit_g = external global i8, align 1
@H5_libterm_g = external global i8, align 1
@.str = private unnamed_addr constant [97 x i8] c"generated/home/dtcxzyw/WorkSpace/Projects/compilers/llvm-opt-benchmark/bench/hdf5/hdf5/src/H5P.c\00", align 1
@H5E_FUNC_g = external global i64, align 8
@H5E_CANTINIT_g = external global i64, align 8
@.str.1 = private unnamed_addr constant [30 x i8] c"library initialization failed\00", align 1
@H5E_CANTSET_g = external global i64, align 8
@.str.2 = private unnamed_addr constant [22 x i8] c"can't set API context\00", align 1
@H5E_ARGS_g = external global i64, align 8
@H5E_BADTYPE_g = external global i64, align 8
@H5E_PLIST_g = external global i64, align 8
@.str.18 = private unnamed_addr constant [20 x i8] c"not a property list\00", align 1
@__func__.H5Pencode2 = private unnamed_addr constant [11 x i8] c"H5Pencode2\00", align 1
@H5P_CLS_FACC = external constant [1 x %struct.H5P_libclass_t], align 16
@H5E_FILE_g = external global i64, align 8
@.str.29 = private unnamed_addr constant [36 x i8] c"can't set access property list info\00", align 1
@H5E_CANTENCODE_g = external global i64, align 8
@.str.30 = private unnamed_addr constant [31 x i8] c"unable to encode property list\00", align 1

; Function Attrs: nounwind uwtable
define i32 @H5Pencode2(i64 noundef %0, ptr noundef %1, ptr noundef %2, i64 noundef %3) #0 {
  %5 = alloca i64, align 8
  %6 = alloca ptr, align 8
  %7 = alloca ptr, align 8
  %8 = alloca i64, align 8
  %9 = alloca ptr, align 8
  %10 = alloca i32, align 4
  %11 = alloca i8, align 1
  %12 = alloca i8, align 1
  store i64 %0, ptr %5, align 8
  store ptr %1, ptr %6, align 8
  store ptr %2, ptr %7, align 8
  store i64 %3, ptr %8, align 8
  store i32 0, ptr %10, align 4
  store i8 0, ptr %11, align 1
  store i8 0, ptr %12, align 1
  %13 = load i8, ptr @H5_libinit_g, align 1
  %14 = trunc i8 %13 to i1
  br i1 %14, label %19, label %15

15:                                               ; preds = %4
  %16 = load i8, ptr @H5_libterm_g, align 1
  %17 = trunc i8 %16 to i1
  %18 = xor i1 %17, true
  br label %19

19:                                               ; preds = %15, %4
  %20 = phi i1 [ false, %4 ], [ %18, %15 ]
  %21 = xor i1 %20, true
  %22 = xor i1 %21, true
  %23 = zext i1 %22 to i32
  %24 = sext i32 %23 to i64
  %25 = icmp ne i64 %24, 0
  br i1 %25, label %26, label %50

26:                                               ; preds = %19
  %27 = call i32 @H5_init_library()
  %28 = icmp slt i32 %27, 0
  %29 = xor i1 %28, true
  %30 = xor i1 %29, true
  %31 = zext i1 %30 to i32
  %32 = sext i32 %31 to i64
  %33 = icmp ne i64 %32, 0
  br i1 %33, label %34, label %49

34:                                               ; preds = %26
  br label %35

35:                                               ; preds = %34
  br label %36

36:                                               ; preds = %35
  br label %37

37:                                               ; preds = %36
  %38 = load i64, ptr @H5E_FUNC_g, align 8
  %39 = load i64, ptr @H5E_CANTINIT_g, align 8
  %40 = call i32 (ptr, ptr, i32, i64, i64, ptr, ...) @H5E_printf_stack(ptr noundef @.str, ptr noundef @__func__.H5Pencode2, i32 noundef 813, i64 noundef %38, i64 noundef %39, ptr noundef @.str.1)
  br label %41

41:                                               ; preds = %37
  store i8 1, ptr %12, align 1
  %42 = load i8, ptr %12, align 1
  %43 = trunc i8 %42 to i1
  %44 = zext i1 %43 to i8
  store i8 %44, ptr %12, align 1
  br label %45

45:                                               ; preds = %41
  br label %46

46:                                               ; preds = %45
  store i32 -1, ptr %10, align 4
  br label %134

47:                                               ; No predecessors!
  br label %48

48:                                               ; preds = %47
  br label %49

49:                                               ; preds = %48, %26
  br label %50

50:                                               ; preds = %49, %19
  %51 = call i32 @H5CX_push()
  %52 = icmp slt i32 %51, 0
  %53 = xor i1 %52, true
  %54 = xor i1 %53, true
  %55 = zext i1 %54 to i32
  %56 = sext i32 %55 to i64
  %57 = icmp ne i64 %56, 0
  br i1 %57, label %58, label %73

58:                                               ; preds = %50
  br label %59

59:                                               ; preds = %58
  br label %60

60:                                               ; preds = %59
  br label %61

61:                                               ; preds = %60
  %62 = load i64, ptr @H5E_FUNC_g, align 8
  %63 = load i64, ptr @H5E_CANTSET_g, align 8
  %64 = call i32 (ptr, ptr, i32, i64, i64, ptr, ...) @H5E_printf_stack(ptr noundef @.str, ptr noundef @__func__.H5Pencode2, i32 noundef 813, i64 noundef %62, i64 noundef %63, ptr noundef @.str.2)
  br label %65

65:                                               ; preds = %61
  store i8 1, ptr %12, align 1
  %66 = load i8, ptr %12, align 1
  %67 = trunc i8 %66 to i1
  %68 = zext i1 %67 to i8
  store i8 %68, ptr %12, align 1
  br label %69

69:                                               ; preds = %65
  br label %70

70:                                               ; preds = %69
  store i32 -1, ptr %10, align 4
  br label %134

71:                                               ; No predecessors!
  br label %72

72:                                               ; preds = %71
  br label %74

73:                                               ; preds = %50
  store i8 1, ptr %11, align 1
  br label %74

74:                                               ; preds = %73, %72
  %75 = call i32 @H5E_clear_stack()
  %76 = load i64, ptr %5, align 8
  %77 = call ptr @H5I_object_verify(i64 noundef %76, i32 noundef 11)
  store ptr %77, ptr %9, align 8
  %78 = icmp eq ptr null, %77
  br i1 %78, label %79, label %94

79:                                               ; preds = %74
  br label %80

80:                                               ; preds = %79
  br label %81

81:                                               ; preds = %80
  br label %82

82:                                               ; preds = %81
  %83 = load i64, ptr @H5E_ARGS_g, align 8
  %84 = load i64, ptr @H5E_BADTYPE_g, align 8
  %85 = call i32 (ptr, ptr, i32, i64, i64, ptr, ...) @H5E_printf_stack(ptr noundef @.str, ptr noundef @__func__.H5Pencode2, i32 noundef 817, i64 noundef %83, i64 noundef %84, ptr noundef @.str.18)
  br label %86

86:                                               ; preds = %82
  store i8 1, ptr %12, align 1
  %87 = load i8, ptr %12, align 1
  %88 = trunc i8 %87 to i1
  %89 = zext i1 %88 to i8
  store i8 %89, ptr %12, align 1
  br label %90

90:                                               ; preds = %86
  br label %91

91:                                               ; preds = %90
  store i32 -1, ptr %10, align 4
  br label %134

92:                                               ; No predecessors!
  br label %93

93:                                               ; preds = %92
  br label %94

94:                                               ; preds = %93, %74
  %95 = call i32 @H5CX_set_apl(ptr noundef %8, ptr noundef @H5P_CLS_FACC, i64 noundef -1, i1 noundef zeroext true)
  %96 = icmp slt i32 %95, 0
  br i1 %96, label %97, label %112

97:                                               ; preds = %94
  br label %98

98:                                               ; preds = %97
  br label %99

99:                                               ; preds = %98
  br label %100

100:                                              ; preds = %99
  %101 = load i64, ptr @H5E_FILE_g, align 8
  %102 = load i64, ptr @H5E_CANTSET_g, align 8
  %103 = call i32 (ptr, ptr, i32, i64, i64, ptr, ...) @H5E_printf_stack(ptr noundef @.str, ptr noundef @__func__.H5Pencode2, i32 noundef 821, i64 noundef %101, i64 noundef %102, ptr noundef @.str.29)
  br label %104

104:                                              ; preds = %100
  store i8 1, ptr %12, align 1
  %105 = load i8, ptr %12, align 1
  %106 = trunc i8 %105 to i1
  %107 = zext i1 %106 to i8
  store i8 %107, ptr %12, align 1
  br label %108

108:                                              ; preds = %104
  br label %109

109:                                              ; preds = %108
  store i32 -1, ptr %10, align 4
  br label %134

110:                                              ; No predecessors!
  br label %111

111:                                              ; preds = %110
  br label %112

112:                                              ; preds = %111, %94
  %113 = load ptr, ptr %9, align 8
  %114 = load ptr, ptr %6, align 8
  %115 = load ptr, ptr %7, align 8
  %116 = call i32 @H5P__encode(ptr noundef %113, i1 noundef zeroext true, ptr noundef %114, ptr noundef %115)
  store i32 %116, ptr %10, align 4
  %117 = icmp slt i32 %116, 0
  br i1 %117, label %118, label %133

118:                                              ; preds = %112
  br label %119

119:                                              ; preds = %118
  br label %120

120:                                              ; preds = %119
  br label %121

121:                                              ; preds = %120
  %122 = load i64, ptr @H5E_PLIST_g, align 8
  %123 = load i64, ptr @H5E_CANTENCODE_g, align 8
  %124 = call i32 (ptr, ptr, i32, i64, i64, ptr, ...) @H5E_printf_stack(ptr noundef @.str, ptr noundef @__func__.H5Pencode2, i32 noundef 825, i64 noundef %122, i64 noundef %123, ptr noundef @.str.30)
  br label %125

125:                                              ; preds = %121
  store i8 1, ptr %12, align 1
  %126 = load i8, ptr %12, align 1
  %127 = trunc i8 %126 to i1
  %128 = zext i1 %127 to i8
  store i8 %128, ptr %12, align 1
  br label %129

129:                                              ; preds = %125
  br label %130

130:                                              ; preds = %129
  store i32 -1, ptr %10, align 4
  br label %134

131:                                              ; No predecessors!
  br label %132

132:                                              ; preds = %131
  br label %133

133:                                              ; preds = %132, %112
  br label %134

134:                                              ; preds = %133, %130, %109, %91, %70, %46
  %135 = load i8, ptr %11, align 1
  %136 = trunc i8 %135 to i1
  %137 = xor i1 %136, true
  %138 = xor i1 %137, true
  %139 = zext i1 %138 to i32
  %140 = sext i32 %139 to i64
  %141 = icmp ne i64 %140, 0
  br i1 %141, label %142, label %144

142:                                              ; preds = %134
  %143 = call i32 @H5CX_pop(i1 noundef zeroext true)
  store i8 0, ptr %11, align 1
  br label %144

144:                                              ; preds = %142, %134
  %145 = load i8, ptr %12, align 1
  %146 = trunc i8 %145 to i1
  %147 = xor i1 %146, true
  %148 = xor i1 %147, true
  %149 = zext i1 %148 to i32
  %150 = sext i32 %149 to i64
  %151 = icmp ne i64 %150, 0
  br i1 %151, label %152, label %154

152:                                              ; preds = %144
  %153 = call i32 @H5E_dump_api_stack()
  br label %154

154:                                              ; preds = %152, %144
  %155 = load i32, ptr %10, align 4
  ret i32 %155
}