; Function Attrs: nounwind uwtable
define range(i32 -1, -2147483648) i32 @H5Pencode2(i64 noundef %0, ptr noundef %1, ptr noundef %2, i64 noundef %3) local_unnamed_addr #0 {
  %5 = alloca i64, align 8
  store i64 %3, ptr %5, align 8
  %6 = load i8, ptr @H5_libinit_g, align 1
  %7 = trunc i8 %6 to i1
  %8 = load i8, ptr @H5_libterm_g, align 1
  %9 = trunc i8 %8 to i1
  %10 = select i1 %7, i1 true, i1 %9
  br i1 %10, label %18, label %11

11:                                               ; preds = %4
  %12 = tail call i32 @H5_init_library() #2
  %13 = icmp slt i32 %12, 0
  br i1 %13, label %14, label %18

14:                                               ; preds = %11
  %15 = load i64, ptr @H5E_FUNC_g, align 8
  %16 = load i64, ptr @H5E_CANTINIT_g, align 8
  %17 = tail call i32 (ptr, ptr, i32, i64, i64, ptr, ...) @H5E_printf_stack(ptr noundef nonnull @.str, ptr noundef nonnull @__func__.H5Pencode2, i32 noundef 813, i64 noundef %15, i64 noundef %16, ptr noundef nonnull @.str.1) #2
  br label %.thread23

18:                                               ; preds = %11, %4
  %19 = tail call i32 @H5CX_push() #2
  %20 = icmp slt i32 %19, 0
  br i1 %20, label %21, label %25

21:                                               ; preds = %18
  %22 = load i64, ptr @H5E_FUNC_g, align 8
  %23 = load i64, ptr @H5E_CANTSET_g, align 8
  %24 = tail call i32 (ptr, ptr, i32, i64, i64, ptr, ...) @H5E_printf_stack(ptr noundef nonnull @.str, ptr noundef nonnull @__func__.H5Pencode2, i32 noundef 813, i64 noundef %22, i64 noundef %23, ptr noundef nonnull @.str.2) #2
  br label %.thread23

25:                                               ; preds = %18
  %26 = tail call i32 @H5E_clear_stack() #2
  %27 = tail call ptr @H5I_object_verify(i64 noundef %0, i32 noundef 11) #2
  %28 = icmp eq ptr %27, null
  br i1 %28, label %29, label %33

29:                                               ; preds = %25
  %30 = load i64, ptr @H5E_ARGS_g, align 8
  %31 = load i64, ptr @H5E_BADTYPE_g, align 8
  %32 = tail call i32 (ptr, ptr, i32, i64, i64, ptr, ...) @H5E_printf_stack(ptr noundef nonnull @.str, ptr noundef nonnull @__func__.H5Pencode2, i32 noundef 817, i64 noundef %30, i64 noundef %31, ptr noundef nonnull @.str.18) #2
  br label %.thread29

33:                                               ; preds = %25
  %34 = call i32 @H5CX_set_apl(ptr noundef nonnull %5, ptr noundef nonnull @H5P_CLS_FACC, i64 noundef -1, i1 noundef zeroext true) #2
  %35 = icmp slt i32 %34, 0
  br i1 %35, label %36, label %40

36:                                               ; preds = %33
  %37 = load i64, ptr @H5E_FILE_g, align 8
  %38 = load i64, ptr @H5E_CANTSET_g, align 8
  %39 = call i32 (ptr, ptr, i32, i64, i64, ptr, ...) @H5E_printf_stack(ptr noundef nonnull @.str, ptr noundef nonnull @__func__.H5Pencode2, i32 noundef 821, i64 noundef %37, i64 noundef %38, ptr noundef nonnull @.str.29) #2
  br label %.thread29

40:                                               ; preds = %33
  %41 = call i32 @H5P__encode(ptr noundef nonnull %27, i1 noundef zeroext true, ptr noundef %1, ptr noundef %2) #2
  %42 = icmp slt i32 %41, 0
  br i1 %42, label %43, label %48

43:                                               ; preds = %40
  %44 = load i64, ptr @H5E_PLIST_g, align 8
  %45 = load i64, ptr @H5E_CANTENCODE_g, align 8
  %46 = call i32 (ptr, ptr, i32, i64, i64, ptr, ...) @H5E_printf_stack(ptr noundef nonnull @.str, ptr noundef nonnull @__func__.H5Pencode2, i32 noundef 825, i64 noundef %44, i64 noundef %45, ptr noundef nonnull @.str.30) #2
  br label %.thread29

.thread29:                                        ; preds = %43, %36, %29
  %47 = call i32 @H5CX_pop(i1 noundef zeroext true) #2
  br label %.thread23

48:                                               ; preds = %40
  %49 = call i32 @H5CX_pop(i1 noundef zeroext true) #2
  br label %51

.thread23:                                        ; preds = %21, %14, %.thread29
  %50 = call i32 @H5E_dump_api_stack() #2
  br label %51

51:                                               ; preds = %48, %.thread23
  %.0121826 = phi i32 [ -1, %.thread23 ], [ %41, %48 ]
  ret i32 %.0121826
}